target datalayout = "e-m:e-p270:32:32-p271:32:32-p272:64:64-i64:64-i128:128-f80:128-n8:16:32:64-S128"
target triple = "x86_64-unknown-linux-gnu"

%struct.BlockCopyCallState = type { ptr, i64, i64, i32, i64, i8, ptr, ptr, ptr, i8, %struct.QemuCoSleep, i8, %struct.anon.3, i8, i32 }
%struct.QemuCoSleep = type { ptr }
%struct.anon.3 = type { ptr, ptr }

@.str.1 = private unnamed_addr constant [27 x i8] c"../qemu/block/block-copy.c\00", align 1
@__func__.block_copy_call_status = private unnamed_addr constant [23 x i8] c"block_copy_call_status\00", align 1
@.str.5 = private unnamed_addr constant [44 x i8] c"qatomic_load_acquire(&call_state->finished)\00", align 1
@__PRETTY_FUNCTION__.block_copy_call_status = private unnamed_addr constant [58 x i8] c"int block_copy_call_status(BlockCopyCallState *, _Bool *)\00", align 1

; Function Attrs: nounwind sspstrong uwtable
define dso_local i32 @block_copy_call_status(ptr noundef %call_state, ptr noundef %error_is_read) #0 {
entry:
  %call_state.addr = alloca ptr, align 8
  %error_is_read.addr = alloca ptr, align 8
  %_val = alloca i8, align 1
  %tmp = alloca i8, align 1
  store ptr %call_state, ptr %call_state.addr, align 8
  store ptr %error_is_read, ptr %error_is_read.addr, align 8
  br label %while.cond

while.cond:                                       ; preds = %do.end, %entry
  br i1 false, label %while.body, label %while.end

while.body:                                       ; preds = %while.cond
  br label %do.body

do.body:                                          ; preds = %while.body
  call void @g_assertion_message_expr(ptr noundef null, ptr noundef @.str.1, i32 noundef 1005, ptr noundef @__func__.block_copy_call_status, ptr noundef null) #10
  unreachable

do.end:                                           ; No predecessors!
  br label %while.cond

while.end:                                        ; preds = %while.cond
  %0 = load ptr, ptr %call_state.addr, align 8
  %finished = getelementptr inbounds %struct.BlockCopyCallState, ptr %0, i32 0, i32 9
  %1 = load atomic i8, ptr %finished acquire, align 8
  store i8 %1, ptr %_val, align 1
  %2 = load i8, ptr %_val, align 1
  %tobool = trunc i8 %2 to i1
  %frombool = zext i1 %tobool to i8
  store i8 %frombool, ptr %tmp, align 1
  %3 = load i8, ptr %tmp, align 1
  %tobool1 = trunc i8 %3 to i1
  br i1 %tobool1, label %if.then, label %if.else

if.then:                                          ; preds = %while.end
  br label %if.end

if.else:                                          ; preds = %while.end
  call void @__assert_fail(ptr noundef @.str.5, ptr noundef @.str.1, i32 noundef 1005, ptr noundef @__PRETTY_FUNCTION__.block_copy_call_status) #8
  unreachable

if.end:                                           ; preds = %if.then
  %4 = load ptr, ptr %error_is_read.addr, align 8
  %tobool2 = icmp ne ptr %4, null
  br i1 %tobool2, label %if.then3, label %if.end7

if.then3:                                         ; preds = %if.end
  %5 = load ptr, ptr %call_state.addr, align 8
  %error_is_read4 = getelementptr inbounds %struct.BlockCopyCallState, ptr %5, i32 0, i32 13
  %6 = load i8, ptr %error_is_read4, align 8
  %tobool5 = trunc i8 %6 to i1
  %7 = load ptr, ptr %error_is_read.addr, align 8
  %frombool6 = zext i1 %tobool5 to i8
  store i8 %frombool6, ptr %7, align 1
  br label %if.end7

if.end7:                                          ; preds = %if.then3, %if.end
  %8 = load ptr, ptr %call_state.addr, align 8
  %ret = getelementptr inbounds %struct.BlockCopyCallState, ptr %8, i32 0, i32 14
  %9 = load i32, ptr %ret, align 4
  ret i32 %9
}