; Function Attrs: nounwind sspstrong uwtable
define dso_local i32 @block_copy_call_status(ptr noundef readonly captures(none) %call_state, ptr noundef writeonly %error_is_read) local_unnamed_addr #0 {
entry:
  %finished = getelementptr inbounds nuw i8, ptr %call_state, i64 72
  %0 = load atomic i8, ptr %finished acquire, align 8
  %tobool = trunc i8 %0 to i1
  br i1 %tobool, label %if.end, label %if.else

if.else:                                          ; preds = %entry
  tail call void @__assert_fail(ptr noundef nonnull @.str.5, ptr noundef nonnull @.str.1, i32 noundef 1005, ptr noundef nonnull @__PRETTY_FUNCTION__.block_copy_call_status) #15
  unreachable

if.end:                                           ; preds = %entry
  %tobool2.not = icmp eq ptr %error_is_read, null
  br i1 %tobool2.not, label %if.end7, label %if.then3

if.then3:                                         ; preds = %if.end
  %error_is_read4 = getelementptr inbounds nuw i8, ptr %call_state, i64 112
  %1 = load i8, ptr %error_is_read4, align 8
  %frombool6 = and i8 %1, 1
  store i8 %frombool6, ptr %error_is_read, align 1
  br label %if.end7

if.end7:                                          ; preds = %if.then3, %if.end
  %ret = getelementptr inbounds nuw i8, ptr %call_state, i64 116
  %2 = load i32, ptr %ret, align 4
  ret i32 %2
}